target datalayout = "e-m:e-p270:32:32-p271:32:32-p272:64:64-i64:64-i128:128-f80:128-n8:16:32:64-S128"
target triple = "x86_64-pc-linux-gnu"

%struct.template_dir_cb_data = type { ptr, i32 }

@.str.73 = private unnamed_addr constant [17 x i8] c"GIT_TEMPLATE_DIR\00", align 1
@get_template_dir.data = internal global %struct.template_dir_cb_data zeroinitializer, align 8
@get_template_dir.dir = internal global ptr null, align 8
@.str.74 = private unnamed_addr constant [36 x i8] c"/usr/local/share/git-core/templates\00", align 1

; Function Attrs: nounwind uwtable
define dso_local ptr @get_template_dir(ptr noundef %0) #0 {
  %2 = alloca ptr, align 8
  %3 = alloca ptr, align 8
  store ptr %0, ptr %2, align 8, !tbaa !4
  call void @llvm.lifetime.start.p0(i64 8, ptr %3) #13
  %4 = load ptr, ptr %2, align 8, !tbaa !4
  store ptr %4, ptr %3, align 8, !tbaa !4
  %5 = load ptr, ptr %3, align 8, !tbaa !4
  %6 = icmp ne ptr %5, null
  br i1 %6, label %9, label %7

7:                                                ; preds = %1
  %8 = call ptr @getenv(ptr noundef @.str.73) #13
  store ptr %8, ptr %3, align 8, !tbaa !4
  br label %9

9:                                                ; preds = %7, %1
  %10 = load ptr, ptr %3, align 8, !tbaa !4
  %11 = icmp ne ptr %10, null
  br i1 %11, label %18, label %12

12:                                               ; preds = %9
  %13 = load i32, ptr getelementptr inbounds nuw (%struct.template_dir_cb_data, ptr @get_template_dir.data, i32 0, i32 1), align 8, !tbaa !108
  %14 = icmp ne i32 %13, 0
  br i1 %14, label %16, label %15

15:                                               ; preds = %12
  call void @git_protected_config(ptr noundef @template_dir_cb, ptr noundef @get_template_dir.data)
  store i32 1, ptr getelementptr inbounds nuw (%struct.template_dir_cb_data, ptr @get_template_dir.data, i32 0, i32 1), align 8, !tbaa !108
  br label %16

16:                                               ; preds = %15, %12
  %17 = load ptr, ptr @get_template_dir.data, align 8, !tbaa !110
  store ptr %17, ptr %3, align 8, !tbaa !4
  br label %18

18:                                               ; preds = %16, %9
  %19 = load ptr, ptr %3, align 8, !tbaa !4
  %20 = icmp ne ptr %19, null
  br i1 %20, label %28, label %21

21:                                               ; preds = %18
  %22 = load ptr, ptr @get_template_dir.dir, align 8, !tbaa !4
  %23 = icmp ne ptr %22, null
  br i1 %23, label %26, label %24

24:                                               ; preds = %21
  %25 = call ptr @system_path(ptr noundef @.str.74)
  store ptr %25, ptr @get_template_dir.dir, align 8, !tbaa !4
  br label %26

26:                                               ; preds = %24, %21
  %27 = load ptr, ptr @get_template_dir.dir, align 8, !tbaa !4
  store ptr %27, ptr %3, align 8, !tbaa !4
  br label %28

28:                                               ; preds = %26, %18
  %29 = load ptr, ptr %3, align 8, !tbaa !4
  call void @llvm.lifetime.end.p0(i64 8, ptr %3) #13
  ret ptr %29
}