; Function Attrs: nounwind uwtable
define dso_local ptr @get_template_dir(ptr noundef readnone %0) local_unnamed_addr #0 {
  %.not = icmp eq ptr %0, null
  br i1 %.not, label %2, label %.thread12

2:                                                ; preds = %1
  %3 = tail call ptr @getenv(ptr noundef nonnull @.str.73) #25
  %.not6 = icmp eq ptr %3, null
  br i1 %.not6, label %4, label %.thread12

4:                                                ; preds = %2
  %5 = load i32, ptr getelementptr inbounds nuw (i8, ptr @get_template_dir.data, i64 8), align 8, !tbaa !101
  %.not7 = icmp eq i32 %5, 0
  br i1 %.not7, label %6, label %7

6:                                                ; preds = %4
  tail call void @git_protected_config(ptr noundef nonnull @template_dir_cb, ptr noundef nonnull @get_template_dir.data) #25
  store i32 1, ptr getelementptr inbounds nuw (i8, ptr @get_template_dir.data, i64 8), align 8, !tbaa !101
  br label %7

7:                                                ; preds = %4, %6
  %8 = load ptr, ptr @get_template_dir.data, align 8, !tbaa !103
  %.not8 = icmp eq ptr %8, null
  br i1 %.not8, label %9, label %.thread12

9:                                                ; preds = %7
  %10 = load ptr, ptr @get_template_dir.dir, align 8, !tbaa !58
  %.not9 = icmp eq ptr %10, null
  br i1 %.not9, label %11, label %.thread12

11:                                               ; preds = %9
  %12 = tail call ptr @system_path(ptr noundef nonnull @.str.74) #25
  store ptr %12, ptr @get_template_dir.dir, align 8, !tbaa !58
  br label %.thread12

.thread12:                                        ; preds = %9, %11, %1, %2, %7
  %.2 = phi ptr [ %8, %7 ], [ %3, %2 ], [ %0, %1 ], [ %12, %11 ], [ %10, %9 ]
  ret ptr %.2
}